target datalayout = "e-m:e-p270:32:32-p271:32:32-p272:64:64-i64:64-i128:128-f80:128-n8:16:32:64-S128"
target triple = "x86_64-pc-linux-gnu"

; Function Attrs: mustprogress nounwind uwtable
define internal noundef i32 @_ZN3ozz7options12_GLOBAL__N_18StrNICmpEPKcS3_m(ptr noundef %0, ptr noundef %1, i64 noundef %2) #6 {
  %4 = alloca i32, align 4
  %5 = alloca ptr, align 8
  %6 = alloca ptr, align 8
  %7 = alloca i64, align 8
  %8 = alloca i32, align 4
  %9 = alloca i32, align 4
  store ptr %0, ptr %5, align 8, !tbaa !9
  store ptr %1, ptr %6, align 8, !tbaa !9
  store i64 %2, ptr %7, align 8, !tbaa !72
  %10 = load i64, ptr %7, align 8, !tbaa !72
  %11 = icmp ne i64 %10, 0
  br i1 %11, label %12, label %45

12:                                               ; preds = %3
  call void @llvm.lifetime.start.p0(i64 4, ptr %8) #3
  call void @llvm.lifetime.start.p0(i64 4, ptr %9) #3
  br label %13

13:                                               ; preds = %39, %12
  %14 = load ptr, ptr %5, align 8, !tbaa !9
  %15 = getelementptr inbounds nuw i8, ptr %14, i32 1
  store ptr %15, ptr %5, align 8, !tbaa !9
  %16 = load i8, ptr %14, align 1, !tbaa !31
  %17 = sext i8 %16 to i32
  %18 = call i32 @tolower(i32 noundef %17) #20
  %19 = trunc i32 %18 to i8
  %20 = zext i8 %19 to i32
  store i32 %20, ptr %8, align 4, !tbaa !32
  %21 = load ptr, ptr %6, align 8, !tbaa !9
  %22 = getelementptr inbounds nuw i8, ptr %21, i32 1
  store ptr %22, ptr %6, align 8, !tbaa !9
  %23 = load i8, ptr %21, align 1, !tbaa !31
  %24 = sext i8 %23 to i32
  %25 = call i32 @tolower(i32 noundef %24) #20
  %26 = trunc i32 %25 to i8
  %27 = zext i8 %26 to i32
  store i32 %27, ptr %9, align 4, !tbaa !32
  br label %28

28:                                               ; preds = %13
  %29 = load i64, ptr %7, align 8, !tbaa !72
  %30 = add i64 %29, -1
  store i64 %30, ptr %7, align 8, !tbaa !72
  %31 = icmp ne i64 %30, 0
  br i1 %31, label %32, label %39

32:                                               ; preds = %28
  %33 = load i32, ptr %8, align 4, !tbaa !32
  %34 = icmp ne i32 %33, 0
  br i1 %34, label %35, label %39

35:                                               ; preds = %32
  %36 = load i32, ptr %8, align 4, !tbaa !32
  %37 = load i32, ptr %9, align 4, !tbaa !32
  %38 = icmp eq i32 %36, %37
  br label %39

39:                                               ; preds = %35, %32, %28
  %40 = phi i1 [ false, %32 ], [ false, %28 ], [ %38, %35 ]
  br i1 %40, label %13, label %41, !llvm.loop !136

41:                                               ; preds = %39
  %42 = load i32, ptr %8, align 4, !tbaa !32
  %43 = load i32, ptr %9, align 4, !tbaa !32
  %44 = sub nsw i32 %42, %43
  store i32 %44, ptr %4, align 4
  call void @llvm.lifetime.end.p0(i64 4, ptr %9) #3
  call void @llvm.lifetime.end.p0(i64 4, ptr %8) #3
  br label %46

45:                                               ; preds = %3
  store i32 0, ptr %4, align 4
  br label %46

46:                                               ; preds = %45, %41
  %47 = load i32, ptr %4, align 4
  ret i32 %47
}

; Function Attrs: mustprogress uwtable
define internal noundef ptr @_ZN3ozz7options12_GLOBAL__N_111ParseOptionEPKcS3_S3_(ptr noundef %0, ptr noundef %1, ptr noundef %2) #4 {
  %4 = alloca ptr, align 8
  %5 = alloca ptr, align 8
  %6 = alloca ptr, align 8
  %7 = alloca ptr, align 8
  %8 = alloca i64, align 8
  %9 = alloca i64, align 8
  %10 = alloca i32, align 4
  store ptr %0, ptr %5, align 8, !tbaa !9
  store ptr %1, ptr %6, align 8, !tbaa !9
  store ptr %2, ptr %7, align 8, !tbaa !9
  call void @llvm.lifetime.start.p0(i64 8, ptr %8) #3
  %11 = load ptr, ptr %6, align 8, !tbaa !9
  %12 = call i64 @strlen(ptr noundef %11) #20
  store i64 %12, ptr %8, align 8, !tbaa !72
  call void @llvm.lifetime.start.p0(i64 8, ptr %9) #3
  %13 = load ptr, ptr %7, align 8, !tbaa !9
  %14 = call i64 @strlen(ptr noundef %13) #20
  store i64 %14, ptr %9, align 8, !tbaa !72
  %15 = load ptr, ptr %5, align 8, !tbaa !9
  %16 = load ptr, ptr %6, align 8, !tbaa !9
  %17 = load i64, ptr %8, align 8, !tbaa !72
  %18 = call noundef i32 @_ZN3ozz7options12_GLOBAL__N_18StrNICmpEPKcS3_m(ptr noundef %15, ptr noundef %16, i64 noundef %17)
  %19 = icmp ne i32 %18, 0
  br i1 %19, label %20, label %21

20:                                               ; preds = %3
  store ptr null, ptr %4, align 8
  store i32 1, ptr %10, align 4
  br label %35

21:                                               ; preds = %3
  %22 = load i64, ptr %8, align 8, !tbaa !72
  %23 = load ptr, ptr %5, align 8, !tbaa !9
  %24 = getelementptr inbounds nuw i8, ptr %23, i64 %22
  store ptr %24, ptr %5, align 8, !tbaa !9
  %25 = load ptr, ptr %5, align 8, !tbaa !9
  %26 = load ptr, ptr %7, align 8, !tbaa !9
  %27 = load i64, ptr %9, align 8, !tbaa !72
  %28 = call noundef i32 @_ZN3ozz7options12_GLOBAL__N_18StrNICmpEPKcS3_m(ptr noundef %25, ptr noundef %26, i64 noundef %27)
  %29 = icmp ne i32 %28, 0
  br i1 %29, label %34, label %30

30:                                               ; preds = %21
  %31 = load ptr, ptr %5, align 8, !tbaa !9
  %32 = load i64, ptr %9, align 8, !tbaa !72
  %33 = getelementptr inbounds nuw i8, ptr %31, i64 %32
  store ptr %33, ptr %4, align 8
  store i32 1, ptr %10, align 4
  br label %35

34:                                               ; preds = %21
  store ptr null, ptr %4, align 8
  store i32 1, ptr %10, align 4
  br label %35

35:                                               ; preds = %34, %30, %20
  call void @llvm.lifetime.end.p0(i64 8, ptr %9) #3
  call void @llvm.lifetime.end.p0(i64 8, ptr %8) #3
  %36 = load ptr, ptr %4, align 8
  ret ptr %36
}