; Function Attrs: mustprogress nofree nounwind willreturn memory(read) uwtable
define internal fastcc noundef ptr @_ZN3ozz7options12_GLOBAL__N_111ParseOptionEPKcS3_S3_(ptr noundef readonly %0, ptr noundef readonly captures(none) %1, ptr noundef readonly captures(none) %2) unnamed_addr #18 {
  %4 = tail call i64 @strlen(ptr noundef nonnull dereferenceable(1) %1) #31
  %5 = tail call i64 @strlen(ptr noundef nonnull dereferenceable(1) %2) #31
  %.not.i = icmp eq i64 %4, 0
  br i1 %.not.i, label %_ZN3ozz7options12_GLOBAL__N_18StrNICmpEPKcS3_m.exit.thread, label %.preheader.i

.preheader.i:                                     ; preds = %3, %.preheader.i
  %.012.i = phi ptr [ %17, %.preheader.i ], [ %1, %3 ]
  %.011.i = phi i64 [ %14, %.preheader.i ], [ %4, %3 ]
  %.010.i = phi ptr [ %18, %.preheader.i ], [ %0, %3 ]
  %6 = load i8, ptr %.010.i, align 1, !tbaa !54
  %7 = sext i8 %6 to i32
  %8 = tail call i32 @tolower(i32 noundef %7) #31
  %9 = and i32 %8, 255
  %10 = load i8, ptr %.012.i, align 1, !tbaa !54
  %11 = sext i8 %10 to i32
  %12 = tail call i32 @tolower(i32 noundef %11) #31
  %13 = and i32 %12, 255
  %14 = add i64 %.011.i, -1
  %15 = icmp ne i64 %14, 0
  %16 = icmp ne i32 %9, 0
  %or.cond.i = select i1 %15, i1 %16, i1 false
  %17 = getelementptr inbounds nuw i8, ptr %.012.i, i64 1
  %18 = getelementptr inbounds nuw i8, ptr %.010.i, i64 1
  %19 = icmp eq i32 %9, %13
  %or.cond18.i = select i1 %or.cond.i, i1 %19, i1 false
  br i1 %or.cond18.i, label %.preheader.i, label %_ZN3ozz7options12_GLOBAL__N_18StrNICmpEPKcS3_m.exit, !llvm.loop !154

_ZN3ozz7options12_GLOBAL__N_18StrNICmpEPKcS3_m.exit: ; preds = %.preheader.i
  br i1 %19, label %_ZN3ozz7options12_GLOBAL__N_18StrNICmpEPKcS3_m.exit.thread, label %_ZN3ozz7options12_GLOBAL__N_18StrNICmpEPKcS3_m.exit22.thread

_ZN3ozz7options12_GLOBAL__N_18StrNICmpEPKcS3_m.exit.thread: ; preds = %3, %_ZN3ozz7options12_GLOBAL__N_18StrNICmpEPKcS3_m.exit
  %20 = getelementptr inbounds nuw i8, ptr %0, i64 %4
  %.not.i13 = icmp eq i64 %5, 0
  br i1 %.not.i13, label %_ZN3ozz7options12_GLOBAL__N_18StrNICmpEPKcS3_m.exit22.thread, label %.preheader.i14

.preheader.i14:                                   ; preds = %_ZN3ozz7options12_GLOBAL__N_18StrNICmpEPKcS3_m.exit.thread, %.preheader.i14
  %.012.i15 = phi ptr [ %32, %.preheader.i14 ], [ %2, %_ZN3ozz7options12_GLOBAL__N_18StrNICmpEPKcS3_m.exit.thread ]
  %.011.i16 = phi i64 [ %29, %.preheader.i14 ], [ %5, %_ZN3ozz7options12_GLOBAL__N_18StrNICmpEPKcS3_m.exit.thread ]
  %.010.i17 = phi ptr [ %33, %.preheader.i14 ], [ %20, %_ZN3ozz7options12_GLOBAL__N_18StrNICmpEPKcS3_m.exit.thread ]
  %21 = load i8, ptr %.010.i17, align 1, !tbaa !54
  %22 = sext i8 %21 to i32
  %23 = tail call i32 @tolower(i32 noundef %22) #31
  %24 = and i32 %23, 255
  %25 = load i8, ptr %.012.i15, align 1, !tbaa !54
  %26 = sext i8 %25 to i32
  %27 = tail call i32 @tolower(i32 noundef %26) #31
  %28 = and i32 %27, 255
  %29 = add i64 %.011.i16, -1
  %30 = icmp ne i64 %29, 0
  %31 = icmp ne i32 %24, 0
  %or.cond.i18 = select i1 %30, i1 %31, i1 false
  %32 = getelementptr inbounds nuw i8, ptr %.012.i15, i64 1
  %33 = getelementptr inbounds nuw i8, ptr %.010.i17, i64 1
  %34 = icmp eq i32 %24, %28
  %cond.fr = freeze i1 %34
  %or.cond18.i19 = and i1 %or.cond.i18, %cond.fr
  br i1 %or.cond18.i19, label %.preheader.i14, label %_ZN3ozz7options12_GLOBAL__N_18StrNICmpEPKcS3_m.exit22, !llvm.loop !154

_ZN3ozz7options12_GLOBAL__N_18StrNICmpEPKcS3_m.exit22: ; preds = %.preheader.i14
  %35 = getelementptr inbounds nuw i8, ptr %20, i64 %5
  %spec.select = select i1 %cond.fr, ptr %35, ptr null
  br label %_ZN3ozz7options12_GLOBAL__N_18StrNICmpEPKcS3_m.exit22.thread

_ZN3ozz7options12_GLOBAL__N_18StrNICmpEPKcS3_m.exit22.thread: ; preds = %_ZN3ozz7options12_GLOBAL__N_18StrNICmpEPKcS3_m.exit.thread, %_ZN3ozz7options12_GLOBAL__N_18StrNICmpEPKcS3_m.exit22, %_ZN3ozz7options12_GLOBAL__N_18StrNICmpEPKcS3_m.exit
  %.0 = phi ptr [ null, %_ZN3ozz7options12_GLOBAL__N_18StrNICmpEPKcS3_m.exit ], [ %spec.select, %_ZN3ozz7options12_GLOBAL__N_18StrNICmpEPKcS3_m.exit22 ], [ %20, %_ZN3ozz7options12_GLOBAL__N_18StrNICmpEPKcS3_m.exit.thread ]
  ret ptr %.0
}